#include <math.h>
#include <stdio.h>
#include <stdlib.h>
#include <string.h>


void turn(int a[ ],int n)
{
	int i,j,k;
	for(i=0;i<n-1;i++)
		for(j=i;j<n;j++){
		if(a[i]>a[j]){
			k=a[i];
			a[i]=a[j];
			a[j]=k;
		}}
	for(i=0;i<n;i++){
			if(i==0)printf("%d",a[i]);
			else printf(" %d",a[i]);
	}
}
void f(int a[],int b[],int an,int bn)
{
	turn(a,an); 
	printf(" ");
	turn(b,bn);
}
void main()
{
	int i,an,bn,a[100],b[100];
	scanf("%d%d",&an,&bn);
	for(i=0;i<an;i++)scanf("%d",&a[i]);
	for(i=0;i<bn;i++)scanf("%d",&b[i]);
	f(a,b,an,bn);
}